(dp0
S'pardon'
p1
I10
sS'ladybird'
p2
I1
sS'hatr'
p3
I1
sS'foul'
p4
I4
sS'interchang'
p5
I1
sS'four'
p6
I2
sS'hath'
p7
I57
sS'protest'
p8
I3
sS'sleep'
p9
I14
sS'mansion'
p10
I2
sS'captain'
p11
I1
sS'hate'
p12
I17
sS'yonder'
p13
I6
sS'forget'
p14
I9
sS'whose'
p15
I14
sS'devout'
p16
I1
sS'sorri'
p17
I1
sS'swan'
p18
I1
sS'sweetest'
p19
I3
sS'under'
p20
I7
sS'lord'
p21
I28
sS'sped'
p22
I1
sS'pride'
p23
I2
sS'worth'
p24
I1
sS'benvolio'
p25
I6
sS'merchant'
p26
I1
sS'lure'
p27
I1
sS'aurora'
p28
I1
sS'hadst'
p29
I5
sS'lurk'
p30
I1
sS'voic'
p31
I6
sS'jack'
p32
I3
sS'govern'
p33
I2
sS'affect'
p34
I6
sS'ala'
p35
I7
sS'vast'
p36
I1
sS'rancour'
p37
I1
sS'disturb'
p38
I2
sS'prefix'
p39
I1
sS'wednesdai'
p40
I3
sS'triumph'
p41
I2
sS'lovest'
p42
I2
sS'lessen'
p43
I1
sS'direct'
p44
I2
sS'enjoi'
p45
I1
sS'consequ'
p46
I1
sS'hors'
p47
I3
sS'street'
p48
I7
sS'valiant'
p49
I2
sS'n'
p50
I3
sS'even'
p51
I13
sS'lesser'
p52
I1
sS'hide'
p53
I8
sS'solemn'
p54
I4
sS'asid'
p55
I9
sS'lightn'
p56
I3
sS'poison'
p57
I14
sS'wondrou'
p58
I1
sS'worser'
p59
I2
sS'sunder'
p60
I1
sS'conduct'
p61
I3
sS'new'
p62
I29
sS'net'
p63
I1
sS'liberti'
p64
I3
sS'told'
p65
I3
sS'cull'
p66
I2
sS'prate'
p67
I1
sS'hero'
p68
I1
sS'behavior'
p69
I1
sS'herb'
p70
I2
sS'men'
p71
I29
sS'lodg'
p72
I4
sS'drew'
p73
I2
sS'met'
p74
I4
sS'mew'
p75
I1
sS'pate'
p76
I1
sS'atomi'
p77
I1
sS'path'
p78
I1
sS'pleasur'
p79
I5
sS'shriek'
p80
I2
sS'chink'
p81
I1
sS'dry'
p82
I5
sS'daughter'
p83
I18
sS'seduc'
p84
I1
sS'dri'
p85
I1
sS'buckler'
p86
I1
sS'smoke'
p87
I2
sS'studi'
p88
I1
sS'fleer'
p89
I1
sS'counti'
p90
I17
sS'golden'
p91
I4
sS'zound'
p92
I2
sS'swai'
p93
I1
sS'unwieldi'
p94
I1
sS'lengthen'
p95
I1
sS'brought'
p96
I1
sS'remnant'
p97
I1
sS'moral'
p98
I1
sS'spoke'
p99
I7
sS'apac'
p100
I2
sS'call'
p101
I35
sS'calm'
p102
I3
sS'strike'
p103
I5
sS'untim'
p104
I5
sS'tell'
p105
I43
sS'griev'
p106
I1
sS'churchyard'
p107
I8
sS'relat'
p108
I1
sS'reign'
p109
I2
sS'hurt'
p110
I6
sS'grief'
p111
I14
sS'warm'
p112
I4
sS'holi'
p113
I20
sS'wari'
p114
I1
sS'ward'
p115
I2
sS'ware'
p116
I2
sS'accid'
p117
I2
sS'word'
p118
I33
sS'room'
p119
I3
sS'restor'
p120
I1
sS'sweeten'
p121
I1
sS'burneth'
p122
I1
sS'mi'
p123
I4
sS'worm'
p124
I4
sS'pierc'
p125
I2
sS'wors'
p126
I3
sS'sweeter'
p127
I1
sS'troth'
p128
I2
sS'packthread'
p129
I1
sS'quarrel'
p130
I10
sS'honei'
p131
I3
sS'quiver'
p132
I2
sS'serpent'
p133
I2
sS'give'
p134
I54
sS'household'
p135
I2
sS'heartless'
p136
I1
sS'overheard'
p137
I1
sS'want'
p138
I4
sS'indit'
p139
I1
sS'untalk'
p140
I1
sS'vanish'
p141
I1
sS'end'
p142
I12
sS'quot'
p143
I1
sS'far'
p144
I6
sS'hot'
p145
I5
sS'confin'
p146
I1
sS'hop'
p147
I1
sS'answer'
p148
I10
sS'gate'
p149
I1
sS'ancestor'
p150
I1
sS'confid'
p151
I1
sS'rise'
p152
I1
sS'lai'
p153
I13
sS'less'
p154
I6
sS'ladder'
p155
I1
sS'substanc'
p156
I3
sS'befor'
p157
I20
sS'wrong'
p158
I4
sS'beauti'
p159
I14
sS'law'
p160
I10
sS'lap'
p161
I1
sS'attempt'
p162
I1
sS'third'
p163
I3
sS'grant'
p164
I2
sS'retort'
p165
I1
sS'unharm'
p166
I1
sS'greet'
p167
I3
sS'childhood'
p168
I1
sS'wink'
p169
I2
sS'maintain'
p170
I1
sS'environ'
p171
I1
sS'south'
p172
I1
sS'incorpor'
p173
I1
sS'enter'
p174
I82
sS'plagu'
p175
I2
sS'fan'
p176
I3
sS'alack'
p177
I8
sS'wing'
p178
I6
sS'wind'
p179
I5
sS'wine'
p180
I1
sS'oper'
p181
I1
sS'afir'
p182
I1
sS'deform'
p183
I1
sS'deck'
p184
I1
sS'consent'
p185
I5
sS'over'
p186
I2
sS'mumbl'
p187
I1
sS'helena'
p188
I1
sS'modesti'
p189
I3
sS'gyve'
p190
I1
sS'vita'
p191
I2
sS'wrought'
p192
I2
sS'dreamer'
p193
I1
sS'gentl'
p194
I13
sS'fit'
p195
I3
sS'better'
p196
I12
sS'spoken'
p197
I1
sS'offic'
p198
I3
sS'fade'
p199
I1
sS'fie'
p200
I4
sS'whipp'
p201
I1
sS'swound'
p202
I1
sS'absolv'
p203
I2
sS'enrich'
p204
I1
sS'thee'
p205
I124
sS'school'
p206
I1
sS'break'
p207
I6
sS'promis'
p208
I2
sS'heareth'
p209
I1
sS'interrupt'
p210
I1
sS'downright'
p211
I1
sS'silver'
p212
I7
sS'bread'
p213
I1
sS'choic'
p214
I2
sS'meat'
p215
I4
sS'thenc'
p216
I2
sS'rosemari'
p217
I3
sS'herald'
p218
I2
sS'arrow'
p219
I1
sS'each'
p220
I3
sS'went'
p221
I2
sS'side'
p222
I6
sS'bone'
p223
I9
sS'mean'
p224
I19
sS'burial'
p225
I1
sS'benedicit'
p226
I1
sS'spider'
p227
I1
sS'tip'
p228
I1
sS'fortnight'
p229
I1
sS'forgot'
p230
I2
sS'receptacl'
p231
I1
sS'drudg'
p232
I1
sS'whit'
p233
I1
sS'commiss'
p234
I1
sS'slew'
p235
I5
sS'whip'
p236
I2
sS'gainst'
p237
I1
sS'unbound'
p238
I1
sS'chequer'
p239
I1
sS'goe'
p240
I3
sS'god'
p241
I33
sS'newli'
p242
I2
sS'content'
p243
I3
sS're'
p244
I10
sS'laid'
p245
I5
sS'wield'
p246
I1
sS'lain'
p247
I3
sS'forth'
p248
I11
sS'forti'
p249
I2
sS'tybalt'
p250
I43
sS'rail'
p251
I1
sS'free'
p252
I3
sS'ancient'
p253
I9
sS'wolvish'
p254
I1
sS'mistress'
p255
I11
sS'knit'
p256
I1
sS'lusti'
p257
I2
sS'speedi'
p258
I1
sS'lour'
p259
I2
sS'penuri'
p260
I1
sS'fleck'
p261
I1
sS'startl'
p262
I1
sS'unknown'
p263
I1
sS'confus'
p264
I1
sS'fantasi'
p265
I1
sS'trembl'
p266
I3
sS'hoop'
p267
I1
sS'wast'
p268
I8
sS'rank'
p269
I2
sS'hook'
p270
I1
sS'alreadi'
p271
I5
sS'sober'
p272
I1
sS'agre'
p273
I2
sS'mischanc'
p274
I1
sS'hood'
p275
I2
sS'acquaint'
p276
I2
sS'their'
p277
I1
sS'airi'
p278
I3
sS'top'
p279
I3
sS'sometim'
p280
I3
sS'toi'
p281
I1
sS'master'
p282
I12
sS'dwell'
p283
I4
sS'bethink'
p284
I2
sS'john'
p285
I4
sS'bitter'
p286
I4
sS'toe'
p287
I1
sS'murder'
p288
I14
sS'tool'
p289
I1
sS'took'
p290
I6
sS'wisdom'
p291
I4
sS'cockatric'
p292
I1
sS'helen'
p293
I1
sS'happili'
p294
I2
sS'peril'
p295
I1
sS'grindston'
p296
I1
sS'soonest'
p297
I1
sS'coward'
p298
I1
sS'tree'
p299
I6
sS'second'
p300
I18
sS'shower'
p301
I1
sS'matter'
p302
I6
sS'iron'
p303
I3
sS'minut'
p304
I4
sS'delici'
p305
I1
sS'beginn'
p306
I1
sS'provis'
p307
I1
sS'fashion'
p308
I1
sS'abov'
p309
I14
sS'quench'
p310
I2
sS'modern'
p311
I1
sS'mind'
p312
I10
sS'mine'
p313
I25
sS'rat'
p314
I2
sS'seed'
p315
I1
sS'manner'
p316
I3
sS'rooteth'
p317
I1
sS'seen'
p318
I6
sS'seem'
p319
I8
sS'seek'
p320
I6
sS'spade'
p321
I2
sS'dozen'
p322
I1
sS'strength'
p323
I6
sS'gripe'
p324
I1
sS'snow'
p325
I1
sS'ambuscado'
p326
I1
sS'cleft'
p327
I1
sS'curfew'
p328
I1
sS'anatomi'
p329
I1
sS'maiden'
p330
I2
sS'shall'
p331
I96
sS'mouth'
p332
I2
sS'letter'
p333
I18
sS'proverb'
p334
I1
sS'snatch'
p335
I1
sS'grave'
p336
I18
sS'peevish'
p337
I1
sS'singer'
p338
I1
sS'excus'
p339
I6
sS'grove'
p340
I1
sS'unpleas'
p341
I1
sS'flow'
p342
I2
sS'dog'
p343
I6
sS'digress'
p344
I1
sS'ducat'
p345
I1
sS'oppress'
p346
I4
sS'came'
p347
I10
sS'swifter'
p348
I1
sS'beaten'
p349
I1
sS'bait'
p350
I1
sS'crotchet'
p351
I1
sS'opposit'
p352
I2
sS'queen'
p353
I1
sS'liest'
p354
I1
sS'decre'
p355
I2
sS'earth'
p356
I14
sS'unworthiest'
p357
I1
sS'despit'
p358
I1
sS'despis'
p359
I3
sS'hoars'
p360
I1
sS'semblanc'
p361
I1
sS'cupid'
p362
I5
sS'baubl'
p363
I1
sS'theme'
p364
I1
sS'busi'
p365
I5
sS'bliss'
p366
I2
sS'rich'
p367
I9
sS'mend'
p368
I2
sS'virtuou'
p369
I3
sS'sieg'
p370
I2
sS'capel'
p371
I2
sS'plate'
p372
I1
sS'forsworn'
p373
I4
sS'di'
p374
I6
sS'likewis'
p375
I2
sS'watch'
p376
I15
sS'weari'
p377
I4
sS'stol'
p378
I2
sS'report'
p379
I1
sS'earl'
p380
I1
sS'skitless'
p381
I1
sS'sacrific'
p382
I1
sS'shape'
p383
I3
sS'musti'
p384
I1
sS'sauc'
p385
I1
sS'bad'
p386
I4
sS'stead'
p387
I1
sS'troop'
p388
I1
sS'rung'
p389
I1
sS'hasten'
p390
I1
sS'steal'
p391
I3
sS'runn'
p392
I1
sS'fair'
p393
I34
sS'nut'
p394
I2
sS'nun'
p395
I1
sS'scourg'
p396
I1
sS'unworthi'
p397
I2
sS'imput'
p398
I1
sS'fain'
p399
I3
sS'best'
p400
I12
sS'subject'
p401
I2
sS'sail'
p402
I4
sS'gentleman'
p403
I14
sS'bier'
p404
I2
sS'discoveri'
p405
I1
sS'figur'
p406
I1
sS'score'
p407
I1
sS'finger'
p408
I6
sS'scorn'
p409
I5
sS'elflock'
p410
I1
sS'awai'
p411
I23
sS'approach'
p412
I3
sS'accord'
p413
I1
sS'never'
p414
I18
sS'wean'
p415
I1
sS'weal'
p416
I1
sS'weak'
p417
I3
sS'drowsi'
p418
I1
sS'tragedi'
p419
I1
sS'lazi'
p420
I2
sS'devour'
p421
I1
sS'here'
p422
I80
sS'unfold'
p423
I1
sS'cousin'
p424
I19
sS'debt'
p425
I2
sS'fettl'
p426
I1
sS'kitchen'
p427
I1
sS'cot'
p428
I1
sS'fault'
p429
I4
sS'ill'
p430
I15
sS'coz'
p431
I4
sS'against'
p432
I10
sS'piti'
p433
I4
sS'brag'
p434
I2
sS'logic'
p435
I1
sS'countri'
p436
I1
sS'eyesight'
p437
I2
sS'assur'
p438
I1
sS'vain'
p439
I3
sS'excess'
p440
I1
sS'charnel'
p441
I1
sS'paradis'
p442
I2
sS'trust'
p443
I5
sS'nake'
p444
I1
sS'accustom'
p445
I1
sS'reveng'
p446
I1
sS'piteou'
p447
I4
sS'three'
p448
I9
sS'twain'
p449
I2
sS'much'
p450
I32
sS'unseemli'
p451
I1
sS'interest'
p452
I1
sS'advers'
p453
I1
sS'thrice'
p454
I1
sS'quickli'
p455
I5
sS'life'
p456
I22
sS'spit'
p457
I2
sS'eastern'
p458
I1
sS'prison'
p459
I3
sS'bladder'
p460
I1
sS'wish'
p461
I6
sS'signior'
p462
I2
sS'lift'
p463
I1
sS'dote'
p464
I2
sS'child'
p465
I14
sS'catch'
p466
I2
sS'joi'
p467
I14
sS'doth'
p468
I43
sS'sallow'
p469
I1
sS'east'
p470
I4
sS'betak'
p471
I1
sS'air'
p472
I7
sS'aim'
p473
I1
sS'near'
p474
I7
sS'weaker'
p475
I1
sS'marriag'
p476
I11
sS'occas'
p477
I3
sS'furiou'
p478
I1
sS'have'
p479
I7
sS'slai'
p480
I5
sS'perchanc'
p481
I1
sS'shame'
p482
I11
sS'jest'
p483
I6
sS'jesu'
p484
I3
sS'tediou'
p485
I2
sS'stint'
p486
I2
sS'sever'
p487
I4
sS'grown'
p488
I3
sS'infold'
p489
I1
sS'descent'
p490
I1
sS'perforc'
p491
I2
sS'distemp'
p492
I1
sS'perform'
p493
I2
sS'pry'
p494
I1
sS'make'
p495
I51
sS'transpar'
p496
I1
sS'wound'
p497
I5
sS'forehead'
p498
I1
sS'petrucio'
p499
I1
sS'patient'
p500
I3
sS'descend'
p501
I2
sS'unsavouri'
p502
I1
sS'monarch'
p503
I1
sS'wheel'
p504
I1
sS'jocund'
p505
I1
sS'descri'
p506
I1
sS'hang'
p507
I9
sS'rain'
p508
I1
sS'hand'
p509
I34
sS'delight'
p510
I5
sS'fairli'
p511
I2
sS'rais'
p512
I5
sS'kin'
p513
I1
sS'supper'
p514
I4
sS'tune'
p515
I1
sS'tassel'
p516
I1
sS'kept'
p517
I1
sS'thy'
p518
I118
sS'thu'
p519
I9
sS'taint'
p520
I1
sS'inherit'
p521
I1
sS'doff'
p522
I1
sS'bandi'
p523
I2
sS'shortli'
p524
I1
sS'greatest'
p525
I1
sS'mother'
p526
I15
sS'left'
p527
I4
sS'yea'
p528
I4
sS'forsaken'
p529
I1
sS'rous'
p530
I4
sS'divideth'
p531
I1
sS'dignifi'
p532
I1
sS'yew'
p533
I2
sS'hai'
p534
I1
sS'errand'
p535
I1
sS'aloud'
p536
I2
sS'ell'
p537
I1
sS'dearer'
p538
I1
sS'hag'
p539
I1
sS'behov'
p540
I1
sS'spread'
p541
I2
sS'endur'
p542
I3
sS'hap'
p543
I2
sS'conjur'
p544
I5
sS'save'
p545
I3
sS'woful'
p546
I5
sS'gave'
p547
I4
sS'preserv'
p548
I1
sS'disposit'
p549
I2
sS'vaniti'
p550
I2
sS'upturn'
p551
I1
sS'twinkl'
p552
I1
sS'discreet'
p553
I1
sS'mocker'
p554
I1
sS'birth'
p555
I4
sS'mandrak'
p556
I1
sS'dreamt'
p557
I2
sS'shadow'
p558
I2
sS'burnt'
p559
I2
sS'befit'
p560
I1
sS'measur'
p561
I6
sS'nimbl'
p562
I2
sS'riddl'
p563
I1
sS'contradict'
p564
I1
sS'hunt'
p565
I2
sS'digniti'
p566
I1
sS'vestal'
p567
I2
sS'splendor'
p568
I1
sS'night'
p569
I75
sS'hung'
p570
I1
sS'amor'
p571
I2
sS'forerun'
p572
I1
sS'imagin'
p573
I1
sS'right'
p574
I5
sS'old'
p575
I24
sS'deal'
p576
I2
sS'flatter'
p577
I2
sS'deaf'
p578
I2
sS'dead'
p579
I39
sS'rever'
p580
I1
sS'revel'
p581
I2
sS'comest'
p582
I1
sS'disparag'
p583
I1
sS'prick'
p584
I5
sS'bore'
p585
I2
sS'dramati'
p586
I1
sS'nobleman'
p587
I2
sS'osier'
p588
I1
sS'humor'
p589
I1
sS'bottom'
p590
I2
sS'foe'
p591
I6
sS'cord'
p592
I6
sS'creatur'
p593
I3
sS'tartar'
p594
I1
sS'bold'
p595
I4
sS'brawl'
p596
I5
sS'corn'
p597
I2
sS'burn'
p598
I5
sS'buri'
p599
I8
sS'speak'
p600
I28
sS'yoke'
p601
I1
sS'unreason'
p602
I1
sS'cors'
p603
I6
sS'keeper'
p604
I2
sS'post'
p605
I3
sS'foolish'
p606
I2
sS'troubl'
p607
I3
sS'conceal'
p608
I1
sS'boister'
p609
I1
sS'choke'
p610
I1
sS'o'
p611
I22
sS'gentler'
p612
I1
sS'festiv'
p613
I2
sS'dinner'
p614
I3
sS'despair'
p615
I2
sS'afternoon'
p616
I3
sS'cherish'
p617
I2
sS'hapli'
p618
I1
sS'strucken'
p619
I1
sS'renown'
p620
I1
sS'bate'
p621
I1
sS'faint'
p622
I3
sS'lief'
p623
I1
sS'lieg'
p624
I1
sS'encount'
p625
I3
sS'civil'
p626
I3
sS'curiou'
p627
I1
sS'nought'
p628
I2
sS'bound'
p629
I8
sS'son'
p630
I18
sS'down'
p631
I20
sS'whate'
p632
I1
sS'opportun'
p633
I1
sS'vengeanc'
p634
I2
sS'wai'
p635
I11
sS'sovereign'
p636
I1
sS'fight'
p637
I8
sS'fought'
p638
I4
sS'goodfellow'
p639
I1
sS'leniti'
p640
I1
sS'wax'
p641
I3
sS'music'
p642
I9
sS'head'
p643
I20
sS'form'
p644
I6
sS'solac'
p645
I1
sS'forc'
p646
I1
sS'crown'
p647
I1
sS'fore'
p648
I1
sS'twould'
p649
I1
sS'heat'
p650
I1
sS'urg'
p651
I4
sS'hear'
p652
I26
sS'interr'
p653
I1
sS'heap'
p654
I1
sS'snowi'
p655
I1
sS'true'
p656
I26
sS'counsel'
p657
I8
sS'moveth'
p658
I1
sS'smilest'
p659
I1
sS'born'
p660
I4
sS'inquir'
p661
I2
sS'rattl'
p662
I1
sS'spleen'
p663
I1
sS'bargain'
p664
I1
sS'twixt'
p665
I2
sS'drave'
p666
I1
sS'bide'
p667
I1
sS'retir'
p668
I5
sS'stirreth'
p669
I1
sS'trim'
p670
I2
sS'napkin'
p671
I1
sS'shin'
p672
I1
sS'toss'
p673
I1
sS'drive'
p674
I1
sS'athwart'
p675
I1
sS'prayer'
p676
I5
sS'furi'
p677
I3
sS'desir'
p678
I2
sS'ship'
p679
I1
sS'enmiti'
p680
I2
sS'assembl'
p681
I1
sS'meagr'
p682
I1
sS'rough'
p683
I4
sS'smelt'
p684
I1
sS'soundli'
p685
I2
sS'valentin'
p686
I1
sS'stake'
p687
I1
sS'excel'
p688
I4
sS'tardi'
p689
I1
sS'willingli'
p690
I1
sS'flood'
p691
I1
sS'shrine'
p692
I1
sS'unbruis'
p693
I1
sS'appetit'
p694
I1
sS'smell'
p695
I3
sS'brisk'
p696
I1
sS'journei'
p697
I1
sS'intend'
p698
I2
sS'toad'
p699
I2
sS'devot'
p700
I2
sS'felt'
p701
I2
sS'fell'
p702
I1
sS'intent'
p703
I4
sS'notic'
p704
I1
sS'consid'
p705
I1
sS'stoccata'
p706
I1
sS'holp'
p707
I1
sS'warn'
p708
I2
sS'younger'
p709
I2
sS'receiv'
p710
I1
sS'faster'
p711
I1
sS'carriag'
p712
I1
sS'ignor'
p713
I1
sS'teeth'
p714
I1
sS'push'
p715
I1
sS'backward'
p716
I3
sS'gown'
p717
I1
sS'matron'
p718
I1
sS'chain'
p719
I1
sS'idolatri'
p720
I1
sS'consum'
p721
I1
sS'princox'
p722
I1
sS'roe'
p723
I1
sS'laura'
p724
I1
sS'stumbl'
p725
I3
sS'nephew'
p726
I3
sS'balthasar'
p727
I1
sS'skin'
p728
I1
sS'hole'
p729
I1
sS'discern'
p730
I1
sS'hold'
p731
I18
sS'depend'
p732
I1
sS'flask'
p733
I1
sS'father'
p734
I26
sS'vex'
p735
I3
sS'watchmen'
p736
I1
sS'tush'
p737
I2
sS'couldst'
p738
I1
sS'terror'
p739
I2
sS'methink'
p740
I3
sS'minist'
p741
I1
sS'cook'
p742
I3
sS'join'
p743
I2
sS'dim'
p744
I2
sS'level'
p745
I1
sS'tear'
p746
I23
sS'die'
p747
I23
sS'reconcil'
p748
I1
sS'brother'
p749
I7
sS'teat'
p750
I1
sS'team'
p751
I1
sS'quick'
p752
I2
sS'gentlewoman'
p753
I3
sS'round'
p754
I1
sS'cloudi'
p755
I1
sS'prevent'
p756
I3
sS'blade'
p757
I3
sS'exeunt'
p758
I19
sS'minion'
p759
I1
sS'sigh'
p760
I6
sS'bondag'
p761
I1
sS'asham'
p762
I1
sS'worn'
p763
I3
sS'attir'
p764
I1
sS'bake'
p765
I2
sS'tempest'
p766
I1
sS'hymn'
p767
I1
sS'appear'
p768
I4
sS'repli'
p769
I1
sS'favour'
p770
I2
sS'jointur'
p771
I1
sS'heret'
p772
I1
sS'health'
p773
I2
sS'suspect'
p774
I2
sS'drunkard'
p775
I1
sS'addl'
p776
I1
sS'gentlemanlik'
p777
I1
sS'honour'
p778
I10
sS'gener'
p779
I2
sS'french'
p780
I1
sS'satisfi'
p781
I5
sS'entertain'
p782
I1
sS'unnatur'
p783
I1
sS'deceit'
p784
I1
sS'along'
p785
I4
sS'wait'
p786
I2
sS'box'
p787
I1
sS'procur'
p788
I2
sS'merriment'
p789
I1
sS'invit'
p790
I2
sS'shift'
p791
I1
sS'bow'
p792
I5
sS'boi'
p793
I12
sS'thirti'
p794
I2
sS'expressli'
p795
I1
sS'extrem'
p796
I3
sS'guilti'
p797
I2
sS'reclaim'
p798
I1
sS'ourselv'
p799
I1
sS'hither'
p800
I12
sS'love'
p801
I132
sS'humour'
p802
I4
sS'betwitch'
p803
I1
sS'withal'
p804
I5
sS'purblind'
p805
I1
sS'fool'
p806
I9
sS'bloodi'
p807
I7
sS'franci'
p808
I2
sS'wealth'
p809
I2
sS'prove'
p810
I7
sS'sake'
p811
I3
sS'grievanc'
p812
I2
sS'visit'
p813
I1
sS'suppl'
p814
I1
sS'abroad'
p815
I3
sS'live'
p816
I36
sS'scope'
p817
I1
sS'angri'
p818
I1
sS'repos'
p819
I1
sS'club'
p820
I2
sS'peopl'
p821
I1
sS'divinest'
p822
I1
sS'drown'
p823
I1
sS'dismal'
p824
I2
sS'exquisit'
p825
I1
sS'examin'
p826
I2
sS'robe'
p827
I2
sS'behalf'
p828
I1
sS'fly'
p829
I4
sS'unruli'
p830
I1
sS'prepar'
p831
I6
sS'soul'
p832
I16
sS'cat'
p833
I4
sS'fli'
p834
I3
sS'sour'
p835
I4
sS'drybeat'
p836
I1
sS'purpos'
p837
I3
sS'privi'
p838
I1
sS'streak'
p839
I2
sS'heart'
p840
I31
sS'stream'
p841
I1
sS'steerag'
p842
I1
sS'drawer'
p843
I1
sS'stroke'
p844
I1
sS'disprais'
p845
I1
sS'mickl'
p846
I1
sS'stole'
p847
I1
sS'shoemak'
p848
I1
sS'chid'
p849
I1
sS'pink'
p850
I2
sS'scar'
p851
I1
sS'winter'
p852
I1
sS'tilt'
p853
I1
sS'pathwai'
p854
I1
sS'pine'
p855
I1
sS'write'
p856
I4
sS'till'
p857
I21
sS'purg'
p858
I3
sS'sword'
p859
I13
sS'sworn'
p860
I3
sS'vainli'
p861
I1
sS'mar'
p862
I2
sS'bawd'
p863
I1
sS'intrus'
p864
I1
sS'mab'
p865
I3
sS'mad'
p866
I11
sS'date'
p867
I4
sS'such'
p868
I44
sS'suck'
p869
I3
sS'unfirm'
p870
I1
sS'dove'
p871
I6
sS'grow'
p872
I4
sS'man'
p873
I67
sS'sy'
p874
I1
sS'neck'
p875
I2
sS'liquid'
p876
I1
sS'beam'
p877
I2
sS'speakest'
p878
I1
sS'st'
p879
I39
sS'tale'
p880
I6
sS'switch'
p881
I1
sS'combin'
p882
I1
sS'practis'
p883
I1
sS'basket'
p884
I2
sS'tall'
p885
I1
sS'truce'
p886
I1
sS'talk'
p887
I16
sS'offenc'
p888
I1
sS'shield'
p889
I1
sS'forfeit'
p890
I2
sS'cutt'
p891
I1
sS'brain'
p892
I5
sS'pitch'
p893
I1
sS'cold'
p894
I6
sS'still'
p895
I14
sS'worship'
p896
I2
sS'thumb'
p897
I4
sS'passag'
p898
I1
sS'torn'
p899
I1
sS'spy'
p900
I2
sS'maid'
p901
I15
sS'window'
p902
I7
sS'suspicion'
p903
I2
sS'haughti'
p904
I1
sS'fright'
p905
I2
sS'estat'
p906
I1
sS'jame'
p907
I1
sS'sooner'
p908
I1
sS'underneath'
p909
I2
sS'flint'
p910
I1
sS'misgiv'
p911
I1
sS'courtship'
p912
I1
sS'now'
p913
I76
sS'hall'
p914
I3
sS'possess'
p915
I3
sS'wagon'
p916
I2
sS'term'
p917
I4
sS'name'
p918
I26
sS'servant'
p919
I32
sS'stir'
p920
I6
sS'dido'
p921
I1
sS'drop'
p922
I3
sS'loin'
p923
I1
sS'separ'
p924
I1
sS'gallant'
p925
I3
sS'rock'
p926
I1
sS'quarter'
p927
I1
sS'courag'
p928
I2
sS'heartsick'
p929
I1
sS'en'
p930
I4
sS'ei'
p931
I2
sS'gape'
p932
I1
sS'apothecari'
p933
I7
sS'agil'
p934
I1
sS'torch'
p935
I11
sS'continu'
p936
I2
sS'prompter'
p937
I1
sS'ey'
p938
I43
sS'begun'
p939
I1
sS'year'
p940
I14
sS'aloof'
p941
I3
sS'et'
p942
I1
sS'girl'
p943
I7
sS'ev'
p944
I2
sS'dispos'
p945
I1
sS'moonshin'
p946
I1
sS'shown'
p947
I2
sS'giddi'
p948
I1
sS'boundless'
p949
I1
sS'uncl'
p950
I4
sS'blubber'
p951
I1
sS'smatter'
p952
I1
sS'monster'
p953
I1
sS'state'
p954
I5
sS'argu'
p955
I1
sS'truckl'
p956
I1
sS'cough'
p957
I1
sS'orb'
p958
I1
sS'care'
p959
I6
sS'outcri'
p960
I1
sS'gossam'
p961
I1
sS'refus'
p962
I1
sS'honest'
p963
I7
sS'motion'
p964
I2
sS'turn'
p965
I17
sS'thine'
p966
I12
sS'place'
p967
I13
sS'aboard'
p968
I1
sS'profess'
p969
I1
sS'neglect'
p970
I1
sS'first'
p971
I31
sS'blind'
p972
I5
sS'merrili'
p973
I1
sS'feign'
p974
I1
sS'mayst'
p975
I3
sS'carri'
p976
I3
sS'onc'
p977
I9
sS'arrai'
p978
I2
sS'yourself'
p979
I5
sS'chide'
p980
I5
sS'spanish'
p981
I1
sS'oppos'
p982
I1
sS'rind'
p983
I1
sS'ring'
p984
I4
sS'happi'
p985
I10
sS'open'
p986
I6
sS'languish'
p987
I1
sS'sheet'
p988
I1
sS'chastiti'
p989
I1
sS'fieri'
p990
I3
sS'bounti'
p991
I1
sS'bite'
p992
I6
sS'fierc'
p993
I1
sS'citi'
p994
I4
sS'circl'
p995
I2
sS'arithmet'
p996
I1
sS'white'
p997
I3
sS'conveni'
p998
I1
sS'friend'
p999
I19
sS'blazon'
p1000
I1
sS'season'
p1001
I1
sS'public'
p1002
I3
sS'eagl'
p1003
I1
sS'antic'
p1004
I2
sS'butt'
p1005
I1
sS'sepulchr'
p1006
I2
sS'holder'
p1007
I1
sS'shamest'
p1008
I2
sS'serv'
p1009
I11
sS'wide'
p1010
I3
sS'orchard'
p1011
I4
sS'wert'
p1012
I3
sS'r'
p1013
I1
sS'sai'
p1014
I1
sS'lick'
p1015
I2
sS'pastri'
p1016
I1
sS'angel'
p1017
I3
sS'plaintain'
p1018
I1
sS'argument'
p1019
I1
sS'sad'
p1020
I9
sS'dash'
p1021
I2
sS'deliv'
p1022
I2
sS'anger'
p1023
I4
sS'dragon'
p1024
I1
sS'saw'
p1025
I9
sS'beggarli'
p1026
I1
sS'offer'
p1027
I3
sS'note'
p1028
I7
sS'goodman'
p1029
I1
sS'wretch'
p1030
I6
sS'take'
p1031
I41
sS'advis'
p1032
I1
sS'green'
p1033
I5
sS'wonder'
p1034
I3
sS'noth'
p1035
I14
sS'dread'
p1036
I1
sS'begin'
p1037
I6
sS'sure'
p1038
I4
sS'pain'
p1039
I5
sS'trace'
p1040
I1
sS'verona'
p1041
I16
sS'price'
p1042
I2
sS'knew'
p1043
I3
sS'entranc'
p1044
I2
sS'hasti'
p1045
I1
sS'abus'
p1046
I3
sS'pair'
p1047
I2
sS'knee'
p1048
I3
sS'everlast'
p1049
I2
sS'dream'
p1050
I9
sS'proud'
p1051
I3
sS'rosalin'
p1052
I10
sS'wouldst'
p1053
I4
sS'bade'
p1054
I4
sS'sunset'
p1055
I1
sS'montagu'
p1056
I31
sS'salt'
p1057
I2
sS'hungri'
p1058
I1
sS'shop'
p1059
I2
sS'perch'
p1060
I1
sS'shot'
p1061
I3
sS'show'
p1062
I14
sS'merit'
p1063
I2
sS'trespass'
p1064
I1
sS'bright'
p1065
I5
sS'convoi'
p1066
I1
sS'shoe'
p1067
I2
sS'trow'
p1068
I2
sS'ground'
p1069
I9
sS'gnat'
p1070
I1
sS'ambl'
p1071
I1
sS'slow'
p1072
I5
sS'slop'
p1073
I1
sS'unkind'
p1074
I1
sS'stair'
p1075
I1
sS'cloak'
p1076
I1
sS'wooe'
p1077
I1
sS'wood'
p1078
I1
sS'black'
p1079
I10
sS'stain'
p1080
I5
sS'amerc'
p1081
I1
sS'waddl'
p1082
I1
sS'trifl'
p1083
I1
sS'cannon'
p1084
I1
sS'lighten'
p1085
I1
sS'nell'
p1086
I1
sS'nobl'
p1087
I8
sS'loath'
p1088
I2
sS'tailor'
p1089
I2
sS'truli'
p1090
I3
sS'perus'
p1091
I1
sS'beseech'
p1092
I7
sS'medlar'
p1093
I1
sS'borrow'
p1094
I3
sS'yield'
p1095
I1
sS'carrion'
p1096
I2
sS'twelv'
p1097
I2
sS'tallow'
p1098
I1
sS'husband'
p1099
I12
sS'pennyworth'
p1100
I1
sS'menac'
p1101
I1
sS'asleep'
p1102
I5
sS'honesti'
p1103
I1
sS'seal'
p1104
I4
sS'sport'
p1105
I2
sS'diver'
p1106
I1
sS'calam'
p1107
I1
sS'infinit'
p1108
I1
sS'dexter'
p1109
I1
sS'hous'
p1110
I32
sS'brave'
p1111
I2
sS'merri'
p1112
I8
sS'crystal'
p1113
I1
sS'amen'
p1114
I3
sS'ornament'
p1115
I4
sS'label'
p1116
I1
sS'hist'
p1117
I2
sS'enough'
p1118
I8
sS'hiss'
p1119
I1
sS'import'
p1120
I2
sS'parent'
p1121
I2
sS'tiberio'
p1122
I1
sS'spring'
p1123
I2
sS'prettiest'
p1124
I2
sS'lineament'
p1125
I1
sS'presag'
p1126
I1
sS'pluck'
p1127
I3
sS'punto'
p1128
I1
sS'blame'
p1129
I1
sS'spare'
p1130
I2
sS'beguil'
p1131
I3
sS'come'
p1132
I113
sS'glide'
p1133
I1
sS'vitravio'
p1134
I1
sS'region'
p1135
I1
sS'quiet'
p1136
I4
sS'contract'
p1137
I1
sS'temper'
p1138
I4
sS's'
p1139
I216
sS'mane'
p1140
I1
sS'mani'
p1141
I13
sS'importun'
p1142
I1
sS'pox'
p1143
I1
sS'quean'
p1144
I1
sS'grasshopp'
p1145
I1
sS'pot'
p1146
I1
sS'runawai'
p1147
I1
sS'slain'
p1148
I16
sS'poultic'
p1149
I1
sS'cancel'
p1150
I1
sS'undraw'
p1151
I1
sS'sauci'
p1152
I2
sS'coupl'
p1153
I1
sS'stretch'
p1154
I2
sS'west'
p1155
I1
sS'mark'
p1156
I8
sS'breath'
p1157
I17
sS'tipto'
p1158
I1
sS'marr'
p1159
I1
sS'covert'
p1160
I1
sS'reflex'
p1161
I1
sS'thousand'
p1162
I7
sS'resolut'
p1163
I1
sS'chao'
p1164
I1
sS'tiger'
p1165
I1
sS'wake'
p1166
I11
sS'evermor'
p1167
I2
sS'instant'
p1168
I1
sS'impati'
p1169
I1
sS'spirit'
p1170
I5
sS'those'
p1171
I16
sS'pilot'
p1172
I2
sS'sound'
p1173
I12
sS'shaft'
p1174
I2
sS'myself'
p1175
I13
sS'scath'
p1176
I1
sS'amend'
p1177
I1
sS'antoni'
p1178
I1
sS'trick'
p1179
I1
sS'cast'
p1180
I3
sS'abbei'
p1181
I1
sS'invoc'
p1182
I1
sS'cock'
p1183
I2
sS'discolour'
p1184
I1
sS'brow'
p1185
I8
sS'henc'
p1186
I25
sS'uncov'
p1187
I1
sS'gloriou'
p1188
I1
sS'strain'
p1189
I4
sS'sudden'
p1190
I7
sS'outrag'
p1191
I2
sS'demesn'
p1192
I2
sS'pursu'
p1193
I2
sS'housewif'
p1194
I1
sS'lamma'
p1195
I3
sS'bowl'
p1196
I1
sS'same'
p1197
I12
sS'gentlemen'
p1198
I10
sS'parentag'
p1199
I1
sS'speech'
p1200
I1
sS'pai'
p1201
I4
sS'pothecari'
p1202
I1
sS'week'
p1203
I2
sS'persona'
p1204
I1
sS'nest'
p1205
I2
sS'assist'
p1206
I1
sS'nobli'
p1207
I1
sS'weed'
p1208
I2
sS'drivel'
p1209
I1
sS'fruit'
p1210
I2
sS'vowel'
p1211
I1
sS'defi'
p1212
I2
sS'weep'
p1213
I16
sS'handsom'
p1214
I1
sS'moder'
p1215
I1
sS'misshapen'
p1216
I1
sS'without'
p1217
I14
sS'cheerli'
p1218
I2
sS'desirest'
p1219
I1
sS'sinner'
p1220
I1
sS'summer'
p1221
I4
sS'violenc'
p1222
I1
sS'execut'
p1223
I1
sS'fume'
p1224
I1
sS'armour'
p1225
I1
sS'graciou'
p1226
I1
sS'rest'
p1227
I14
sS'ne'
p1228
I10
sS'violent'
p1229
I2
sS'kill'
p1230
I18
sS'scrape'
p1231
I1
sS'touch'
p1232
I4
sS'monei'
p1233
I1
sS'speed'
p1234
I4
sS'mannerli'
p1235
I1
sS'blow'
p1236
I5
sS'wherefor'
p1237
I5
sS'death'
p1238
I65
sS'ghostli'
p1239
I4
sS'rose'
p1240
I3
sS'pensiv'
p1241
I1
sS'senseless'
p1242
I1
sS'littl'
p1243
I11
sS'instrument'
p1244
I2
sS'hind'
p1245
I1
sS'struck'
p1246
I2
sS'earli'
p1247
I16
sS'caetera'
p1248
I1
sS'frown'
p1249
I4
sS'gloom'
p1250
I1
sS'read'
p1251
I7
sS'deflow'
p1252
I1
sS'ladi'
p1253
I51
sS'dart'
p1254
I1
sS'dark'
p1255
I7
sS'traffic'
p1256
I1
sS'dispatch'
p1257
I1
sS'world'
p1258
I16
sS'phaethon'
p1259
I1
sS'dare'
p1260
I9
sS'victori'
p1261
I1
sS'benefic'
p1262
I1
sS'stranger'
p1263
I2
sS'treacher'
p1264
I1
sS'orison'
p1265
I1
sS'engross'
p1266
I1
sS'chamber'
p1267
I10
sS't'
p1268
I10
sS'view'
p1269
I3
sS'friar'
p1270
I24
sS'tower'
p1271
I1
sS'manag'
p1272
I2
sS'clap'
p1273
I1
sS'oddli'
p1274
I1
sS'falsehood'
p1275
I1
sS'grub'
p1276
I2
sS'constabl'
p1277
I1
sS'titan'
p1278
I1
sS'ascend'
p1279
I1
sS'dole'
p1280
I1
sS'gross'
p1281
I1
sS'mood'
p1282
I1
sS'noon'
p1283
I1
sS'unluckili'
p1284
I1
sS'exil'
p1285
I7
sS'stopp'
p1286
I1
sS'moon'
p1287
I2
sS'exit'
p1288
I30
sS'porter'
p1289
I1
sS'power'
p1290
I6
sS'farewel'
p1291
I17
sS'injur'
p1292
I1
sS'sprung'
p1293
I1
sS'slaughter'
p1294
I5
sS'maidenhood'
p1295
I1
sS'broken'
p1296
I1
sS'fathom'
p1297
I1
sS'drawn'
p1298
I3
sS'throw'
p1299
I2
sS'on'
p1300
I50
sS'stone'
p1301
I4
sS'contagion'
p1302
I1
sS'roar'
p1303
I3
sS'gregori'
p1304
I2
sS'tributari'
p1305
I1
sS'stoni'
p1306
I2
sS'chop'
p1307
I1
sS'parson'
p1308
I1
sS'knave'
p1309
I4
sS'act'
p1310
I5
sS'ow'
p1311
I2
sS'allianc'
p1312
I1
sS'op'
p1313
I2
sS'stratagem'
p1314
I1
sS'dagger'
p1315
I7
sS'braggart'
p1316
I1
sS'whiter'
p1317
I1
sS'bepaint'
p1318
I1
sS'nurs'
p1319
I133
sS'schoolboi'
p1320
I1
sS'your'
p1321
I4
sS'fast'
p1322
I3
sS'log'
p1323
I3
sS'her'
p1324
I1
sS'catl'
p1325
I1
sS'stark'
p1326
I1
sS'start'
p1327
I2
sS'stealth'
p1328
I1
sS'starv'
p1329
I2
sS'budg'
p1330
I1
sS'low'
p1331
I1
sS'mistemp'
p1332
I1
sS'submiss'
p1333
I1
sS'fish'
p1334
I3
sS'mischief'
p1335
I1
sS'groan'
p1336
I6
sS'conclud'
p1337
I1
sS'pitcher'
p1338
I1
sS'femal'
p1339
I1
sS'shrunk'
p1340
I1
sS'disobedi'
p1341
I2
sS'purgatori'
p1342
I1
sS'gore'
p1343
I1
sS'gorg'
p1344
I1
sS'gori'
p1345
I1
sS'longer'
p1346
I5
sS'rush'
p1347
I3
sS'rage'
p1348
I5
sS'pule'
p1349
I1
sS'sisterhood'
p1350
I1
sS'flirt'
p1351
I1
sS'kinsman'
p1352
I14
sS'puls'
p1353
I1
sS'expect'
p1354
I1
sS'gone'
p1355
I31
sS'ad'
p1356
I2
sS'wormwood'
p1357
I1
sS'ah'
p1358
I18
sS'deep'
p1359
I6
sS'fellow'
p1360
I7
sS'ap'
p1361
I1
sS'ay'
p1362
I29
sS'ax'
p1363
I1
sS'deed'
p1364
I2
sS'proport'
p1365
I2
sS'film'
p1366
I1
sS'fill'
p1367
I1
sS'angelica'
p1368
I1
sS'again'
p1369
I27
sS'burden'
p1370
I3
sS'repent'
p1371
I2
sS'thither'
p1372
I4
sS'field'
p1373
I3
sS'valid'
p1374
I1
sS'twere'
p1375
I1
sS'juic'
p1376
I1
sS'poor'
p1377
I17
sS'discours'
p1378
I2
sS'time'
p1379
I39
sS'pear'
p1380
I1
sS'briefli'
p1381
I1
sS'brotherhood'
p1382
I1
sS'peac'
p1383
I16
sS'wife'
p1384
I19
sS'thorn'
p1385
I1
sS'mask'
p1386
I5
sS'heavenli'
p1387
I1
sS'mass'
p1388
I2
sS'adam'
p1389
I1
sS'treason'
p1390
I1
sS'apparel'
p1391
I1
sS'liar'
p1392
I1
sS'lace'
p1393
I1
sS'vile'
p1394
I8
sS'forbidden'
p1395
I1
sS'lack'
p1396
I1
sS'meddl'
p1397
I1
sS'unrest'
p1398
I1
sS'follow'
p1399
I12
sS'merchandis'
p1400
I1
sS'tarri'
p1401
I1
sS'children'
p1402
I3
sS'wanton'
p1403
I4
sS'ty'
p1404
I1
sS'palac'
p1405
I2
sS'tail'
p1406
I1
sS'painter'
p1407
I1
sS'highmost'
p1408
I1
sS'crimson'
p1409
I1
sS'smile'
p1410
I4
sS'thursdai'
p1411
I13
sS'ta'
p1412
I2
sS'case'
p1413
I8
sS'tatter'
p1414
I1
sS'woman'
p1415
I3
sS'begon'
p1416
I1
sS'song'
p1417
I2
sS'fals'
p1418
I2
sS'fai'
p1419
I1
sS'worst'
p1420
I1
sS'unmann'
p1421
I1
sS'fall'
p1422
I21
sS'veri'
p1423
I22
sS'strang'
p1424
I6
sS'begot'
p1425
I1
sS'heaven'
p1426
I27
sS'lisp'
p1427
I1
sS'list'
p1428
I1
sS'afeard'
p1429
I1
sS'bodi'
p1430
I9
sS'mile'
p1431
I1
sS'plain'
p1432
I1
sS'small'
p1433
I3
sS'joiner'
p1434
I1
sS'smock'
p1435
I1
sS'ten'
p1436
I2
sS'unsatisfi'
p1437
I1
sS'past'
p1438
I5
sS'go'
p1439
I70
sS'rate'
p1440
I2
sS'lawyer'
p1441
I1
sS'pass'
p1442
I4
sS'further'
p1443
I5
sS'whenc'
p1444
I2
sS'dian'
p1445
I1
sS'dial'
p1446
I1
sS'tickl'
p1447
I2
sS'clock'
p1448
I3
sS'sun'
p1449
I16
sS'sum'
p1450
I1
sS'stool'
p1451
I1
sS'brief'
p1452
I5
sS'milk'
p1453
I1
sS'crush'
p1454
I1
sS'displeas'
p1455
I1
sS'bestrid'
p1456
I2
sS'sweetli'
p1457
I1
sS'sup'
p1458
I1
sS'hurdl'
p1459
I1
sS'earthquak'
p1460
I1
sS'obsequi'
p1461
I2
sS'womb'
p1462
I3
sS'full'
p1463
I10
sS'christian'
p1464
I1
sS'surceas'
p1465
I1
sS'uneven'
p1466
I1
sS'immort'
p1467
I3
sS'sociabl'
p1468
I1
sS'trunk'
p1469
I1
sS'hast'
p1470
I38
sS'prologu'
p1471
I1
sS'strong'
p1472
I3
sS'search'
p1473
I4
sS'fishifi'
p1474
I1
sS'miseri'
p1475
I2
sS'whine'
p1476
I1
sS'forefath'
p1477
I1
sS'soldier'
p1478
I2
sS'unplagu'
p1479
I1
sS'action'
p1480
I1
sS'narrow'
p1481
I1
sS'medicin'
p1482
I1
sS'fearfulli'
p1483
I1
sS'depart'
p1484
I5
sS'courtier'
p1485
I1
sS'young'
p1486
I23
sS'ask'
p1487
I9
sS'lucentio'
p1488
I1
sS'ash'
p1489
I2
sS'taker'
p1490
I1
sS'proceed'
p1491
I1
sS'injuri'
p1492
I1
sS'tackl'
p1493
I1
sS'two'
p1494
I22
sS'goeth'
p1495
I1
sS'morn'
p1496
I13
sS'taken'
p1497
I2
sS'more'
p1498
I55
sS'blister'
p1499
I2
sS'wretched'
p1500
I1
sS'door'
p1501
I5
sS'mire'
p1502
I1
sS'hundr'
p1503
I3
sS'hurri'
p1504
I1
sS'preciou'
p1505
I4
sS'flag'
p1506
I1
sS'stick'
p1507
I2
sS'broke'
p1508
I2
sS'aris'
p1509
I3
sS'known'
p1510
I4
sS'compani'
p1511
I6
sS'doom'
p1512
I7
sS'alderman'
p1513
I1
sS'glad'
p1514
I2
sS'town'
p1515
I5
sS'none'
p1516
I14
sS'hour'
p1517
I26
sS'pernici'
p1518
I1
sS'citizen'
p1519
I6
sS'dew'
p1520
I5
sS'remain'
p1521
I2
sS'nine'
p1522
I5
sS'den'
p1523
I6
sS'learn'
p1524
I9
sS'swash'
p1525
I1
sS'prompt'
p1526
I1
sS'gallop'
p1527
I2
sS'challeng'
p1528
I2
sS'share'
p1529
I1
sS'thievish'
p1530
I1
sS'sphere'
p1531
I1
sS'nippl'
p1532
I1
sS'sharp'
p1533
I4
sS'swung'
p1534
I1
sS'dress'
p1535
I1
sS'hie'
p1536
I8
sS'condemn'
p1537
I2
sS'unlucki'
p1538
I2
sS'huge'
p1539
I1
sS'cours'
p1540
I4
sS'court'
p1541
I4
sS'anoth'
p1542
I11
sS'bawdi'
p1543
I1
sS'comfort'
p1544
I12
sS'hugh'
p1545
I1
sS'divin'
p1546
I2
sS'divis'
p1547
I1
sS'wither'
p1548
I1
sS'needi'
p1549
I3
sS'languag'
p1550
I1
sS'reviv'
p1551
I3
sS'simpl'
p1552
I7
sS'headstrong'
p1553
I1
sS'hoar'
p1554
I2
sS'plant'
p1555
I2
sS'infecti'
p1556
I1
sS'rude'
p1557
I5
sS'fa'
p1558
I2
sS'embrac'
p1559
I1
sS'blood'
p1560
I16
sS'waver'
p1561
I1
sS'tetchi'
p1562
I1
sS'varianc'
p1563
I1
sS'associ'
p1564
I1
sS'harsh'
p1565
I1
sS'circumst'
p1566
I2
sS'short'
p1567
I7
sS'womanish'
p1568
I2
sS'susan'
p1569
I2
sS'coat'
p1570
I1
sS'jove'
p1571
I1
sS'ambigu'
p1572
I1
sS'caus'
p1573
I5
sS'coal'
p1574
I1
sS'shore'
p1575
I1
sS'wrench'
p1576
I1
sS'enviou'
p1577
I5
sS'shadi'
p1578
I1
sS'egg'
p1579
I1
sS'infant'
p1580
I1
sS'help'
p1581
I16
sS'maidenhead'
p1582
I3
sS'soon'
p1583
I12
sS'cross'
p1584
I4
sS'held'
p1585
I2
sS'paper'
p1586
I2
sS'through'
p1587
I8
sS'hell'
p1588
I5
sS'suffer'
p1589
I1
sS'alla'
p1590
I1
sS'sale'
p1591
I1
sS'bosom'
p1592
I8
sS'alli'
p1593
I1
sS'late'
p1594
I12
sS'resort'
p1595
I1
sS'creat'
p1596
I1
sS'prai'
p1597
I17
sS'bout'
p1598
I1
sS'lath'
p1599
I1
sS'runag'
p1600
I1
sS'prodigi'
p1601
I1
sS'forbear'
p1602
I2
sS'rapier'
p1603
I3
sS'good'
p1604
I76
sS'return'
p1605
I6
sS'food'
p1606
I3
sS'sentenc'
p1607
I2
sS'ye'
p1608
I12
sS'goos'
p1609
I5
sS'thereof'
p1610
I1
sS'compound'
p1611
I1
sS'foot'
p1612
I11
sS'arbitr'
p1613
I1
sS'adventur'
p1614
I2
sS'complain'
p1615
I1
sS'bigger'
p1616
I2
sS'wash'
p1617
I5
sS'fairi'
p1618
I1
sS'bless'
p1619
I8
sS'valentio'
p1620
I1
sS'saluteth'
p1621
I1
sS'undertak'
p1622
I1
sS'blest'
p1623
I2
sS'ceas'
p1624
I3
sS'found'
p1625
I7
sS'friendship'
p1626
I1
sS'button'
p1627
I1
sS'lantern'
p1628
I2
sS'garish'
p1629
I1
sS'dig'
p1630
I1
sS'hark'
p1631
I4
sS'hare'
p1632
I2
sS'hard'
p1633
I4
sS'gun'
p1634
I1
sS'heavi'
p1635
I12
sS'harlotri'
p1636
I1
sS'thing'
p1637
I25
sS'flower'
p1638
I16
sS'safeti'
p1639
I1
sS'childish'
p1640
I1
sS'highwai'
p1641
I1
sS'loll'
p1642
I1
sS'reverend'
p1643
I1
sS'fountain'
p1644
I1
sS'hill'
p1645
I2
sS'testifi'
p1646
I1
sS'henceforward'
p1647
I2
sS'gorgeou'
p1648
I1
sS'betoss'
p1649
I1
sS'advanc'
p1650
I4
sS'lover'
p1651
I11
sS'pleasant'
p1652
I1
sS'reason'
p1653
I6
sS'dirg'
p1654
I1
sS'believ'
p1655
I4
sS'dire'
p1656
I2
sS'put'
p1657
I17
sS'teach'
p1658
I3
sS'dissembl'
p1659
I1
sS'thrown'
p1660
I1
sS'perjur'
p1661
I1
sS'thread'
p1662
I1
sS'omit'
p1663
I1
sS'beggari'
p1664
I1
sS'bridegroom'
p1665
I4
sS'perhap'
p1666
I1
sS'disguis'
p1667
I1
sS'midwif'
p1668
I1
sS'blush'
p1669
I4
sS'forsooth'
p1670
I1
sS'sympathi'
p1671
I1
sS'dine'
p1672
I2
sS'feel'
p1673
I8
sS'exchang'
p1674
I3
sS'number'
p1675
I3
sS'feet'
p1676
I1
sS'elder'
p1677
I1
sS'unwash'
p1678
I1
sS'drier'
p1679
I1
sS'done'
p1680
I10
sS'wench'
p1681
I5
sS'horribl'
p1682
I1
sS'mist'
p1683
I1
sS'miss'
p1684
I2
sS'moan'
p1685
I1
sS'differ'
p1686
I2
sS'guest'
p1687
I6
sS'bescreen'
p1688
I1
sS'paint'
p1689
I1
sS'stori'
p1690
I2
sS'saint'
p1691
I13
sS'crow'
p1692
I6
sS'twenti'
p1693
I9
sS'store'
p1694
I2
sS'conduit'
p1695
I1
sS'muffl'
p1696
I2
sS'storm'
p1697
I2
sS'placentio'
p1698
I1
sS'pump'
p1699
I2
sS'month'
p1700
I2
sS'pari'
p1701
I28
sS'madmen'
p1702
I1
sS'provid'
p1703
I1
sS'part'
p1704
I19
sS'bower'
p1705
I1
sS'rogu'
p1706
I1
sS'grace'
p1707
I4
sS'king'
p1708
I3
sS'kind'
p1709
I6
sS'contrari'
p1710
I3
sS'lament'
p1711
I7
sS'vial'
p1712
I2
sS'remov'
p1713
I5
sS'drift'
p1714
I2
sS'youth'
p1715
I9
sS'bride'
p1716
I5
sS'cost'
p1717
I1
sS'dank'
p1718
I1
sS'kindli'
p1719
I1
sS'stale'
p1720
I1
sS'toward'
p1721
I6
sS'danc'
p1722
I8
sS'grei'
p1723
I4
sS'mercutio'
p1724
I19
sS'affrai'
p1725
I1
sS'well'
p1726
I60
sS'miscarri'
p1727
I1
sS'expir'
p1728
I1
sS'nightingal'
p1729
I2
sS'gall'
p1730
I2
sS'dedic'
p1731
I1
sS'liveri'
p1732
I2
sS'sell'
p1733
I3
sS'mountain'
p1734
I1
sS'jour'
p1735
I1
sS'self'
p1736
I2
sS'cave'
p1737
I2
sS'couch'
p1738
I1
sS'exposit'
p1739
I1
sS'lip'
p1740
I18
sS'folk'
p1741
I1
sS'brace'
p1742
I1
sS'gill'
p1743
I1
sS'quoth'
p1744
I5
sS'servingmen'
p1745
I3
sS'reckon'
p1746
I2
sS'beauteou'
p1747
I2
sS'mixtur'
p1748
I1
sS'plat'
p1749
I1
sS'plai'
p1750
I10
sS'charm'
p1751
I1
sS'wive'
p1752
I1
sS'charg'
p1753
I3
sS'amaz'
p1754
I2
sS'hereaft'
p1755
I2
sS'justli'
p1756
I1
sS'clear'
p1757
I2
sS'cover'
p1758
I4
sS'naught'
p1759
I1
sS'tongu'
p1760
I12
sS'weigh'
p1761
I1
sS'abroach'
p1762
I1
sS'think'
p1763
I24
sS'gold'
p1764
I5
sS'driveth'
p1765
I1
sS'employ'
p1766
I1
sS'reput'
p1767
I1
sS'fine'
p1768
I5
sS'find'
p1769
I23
sS'penalti'
p1770
I1
sS'henceforth'
p1771
I2
sS'pretti'
p1772
I6
sS'inde'
p1773
I9
sS'flesh'
p1774
I6
sS'fiend'
p1775
I3
sS'inconst'
p1776
I3
sS'unhappi'
p1777
I2
sS'remedi'
p1778
I4
sS'hit'
p1779
I6
sS'worshipp'
p1780
I1
sS'pois'
p1781
I1
sS'nativ'
p1782
I2
sS'hid'
p1783
I3
sS'twill'
p1784
I1
sS'compass'
p1785
I1
sS'salut'
p1786
I1
sS'silk'
p1787
I2
sS'banquet'
p1788
I1
sS'uncomfort'
p1789
I1
sS'unfurnish'
p1790
I1
sS'unlook'
p1791
I1
sS'cry'
p1792
I6
sS'timeless'
p1793
I1
sS'sojourn'
p1794
I1
sS'tavern'
p1795
I1
sS'common'
p1796
I2
sS'cri'
p1797
I4
sS'monger'
p1798
I1
sS'doublet'
p1799
I1
sS'set'
p1800
I10
sS'art'
p1801
I48
sS'dishclout'
p1802
I1
sS'overwhelm'
p1803
I1
sS'see'
p1804
I39
sS'bare'
p1805
I4
sS'sea'
p1806
I7
sS'tender'
p1807
I7
sS'close'
p1808
I10
sS'bark'
p1809
I2
sS'allig'
p1810
I1
sS'arm'
p1811
I10
sS'merci'
p1812
I7
sS'wot'
p1813
I1
sS'someth'
p1814
I4
sS'wail'
p1815
I2
sS'woo'
p1816
I5
sS'smallest'
p1817
I1
sS'dost'
p1818
I15
sS'woe'
p1819
I19
sS'enjoin'
p1820
I1
sS'rite'
p1821
I3
sS'compliment'
p1822
I2
sS'fiddlestick'
p1823
I1
sS'sold'
p1824
I2
sS'sole'
p1825
I4
sS'aspir'
p1826
I1
sS'purpl'
p1827
I1
sS'both'
p1828
I22
sS'servingman'
p1829
I1
sS'last'
p1830
I9
sS'thou'
p1831
I213
sS'alon'
p1832
I16
sS'bachelor'
p1833
I1
sS'grudg'
p1834
I1
sS'foreign'
p1835
I1
sS'inauspici'
p1836
I1
sS'detest'
p1837
I2
sS'lash'
p1838
I1
sS'overset'
p1839
I1
sS'whole'
p1840
I4
sS'usest'
p1841
I1
sS'distress'
p1842
I1
sS'drunk'
p1843
I3
sS'sweet'
p1844
I34
sS'hollow'
p1845
I3
sS'provok'
p1846
I1
sS'church'
p1847
I10
sS'vessel'
p1848
I1
sS'mistak'
p1849
I1
sS'throughout'
p1850
I1
sS'deceiv'
p1851
I2
sS'faithfulli'
p1852
I1
sS'devil'
p1853
I3
sS'dun'
p1854
I1
sS'empti'
p1855
I4
sS'dug'
p1856
I1
sS'ran'
p1857
I4
sS'secret'
p1858
I4
sS'damn'
p1859
I4
sS'monthli'
p1860
I1
sS'whoe'
p1861
I1
sS'devis'
p1862
I3
sS'goodli'
p1863
I1
sS'squirrel'
p1864
I1
sS'fire'
p1865
I9
sS'infect'
p1866
I2
sS'overthrow'
p1867
I1
sS'great'
p1868
I9
sS'softest'
p1869
I1
sS'partli'
p1870
I1
sS'liver'
p1871
I1
sS'demand'
p1872
I1
sS'repetit'
p1873
I1
sS'gad'
p1874
I1
sS'look'
p1875
I41
sS'frozen'
p1876
I1
sS'straight'
p1877
I8
sS'bill'
p1878
I1
sS'crutch'
p1879
I1
sS'rope'
p1880
I1
sS'pace'
p1881
I1
sS'clout'
p1882
I1
sS'rigour'
p1883
I1
sS'fun'
p1884
I1
sS'shake'
p1885
I2
sS'loos'
p1886
I1
sS'pack'
p1887
I2
sS'propag'
p1888
I1
sS'asund'
p1889
I1
sS'accurs'
p1890
I1
sS'readi'
p1891
I5
sS'centr'
p1892
I1
sS'chast'
p1893
I1
sS'confound'
p1894
I1
sS'itself'
p1895
I6
sS'virtu'
p1896
I2
sS'rejoic'
p1897
I2
sS'rid'
p1898
I1
sS'vaulti'
p1899
I1
sS'anguish'
p1900
I1
sS'fairer'
p1901
I2
sS'chase'
p1902
I1
sS'choler'
p1903
I2
sS'shirt'
p1904
I1
sS'madli'
p1905
I1
sS'minim'
p1906
I1
sS'belong'
p1907
I3
sS'butcher'
p1908
I1
sS'wherein'
p1909
I1
sS'severest'
p1910
I1
sS'itali'
p1911
I1
sS'revolt'
p1912
I2
sS'hild'
p1913
I2
sS'bon'
p1914
I1
sS'itch'
p1915
I1
sS'lie'
p1916
I21
sS'shrive'
p1917
I1
sS'chang'
p1918
I6
sS'dismemb'
p1919
I1
sS'prorogu'
p1920
I2
sS'older'
p1921
I1
sS'cheek'
p1922
I12
sS'spent'
p1923
I3
sS'morrow'
p1924
I20
sS'person'
p1925
I3
sS'cheer'
p1926
I5
sS'appertain'
p1927
I1
sS'withdraw'
p1928
I3
sS'toil'
p1929
I3
sS'tast'
p1930
I4
sS'howl'
p1931
I1
sS'weakest'
p1932
I1
sS'bearer'
p1933
I2
sS'pomegran'
p1934
I1
sS'morsel'
p1935
I1
sS'obscur'
p1936
I1
sS'intercess'
p1937
I1
sS'choru'
p1938
I2
sS'countervail'
p1939
I1
sS'baptiz'
p1940
I1
sS'behind'
p1941
I2
sS'unto'
p1942
I9
sS'depriv'
p1943
I1
sS'cut'
p1944
I6
sS'predomin'
p1945
I1
sS'cup'
p1946
I3
sS'promot'
p1947
I1
sS'rebeck'
p1948
I1
sS'labour'
p1949
I1
sS'rear'
p1950
I1
sS'ag'
p1951
I6
sS'cun'
p1952
I2
sS'bridal'
p1953
I3
sS'divorc'
p1954
I1
sS'easter'
p1955
I1
sS'capulet'
p1956
I32
sS'livest'
p1957
I1
sS'maria'
p1958
I1
sS'dearli'
p1959
I2
sS'big'
p1960
I2
sS'bid'
p1961
I17
sS'chiefli'
p1962
I1
sS'moodi'
p1963
I1
sS'game'
p1964
I1
sS'tut'
p1965
I4
sS'abound'
p1966
I1
sS'falcon'
p1967
I1
sS'bit'
p1968
I1
sS'overthrown'
p1969
I1
sS'knock'
p1970
I6
sS'leisur'
p1971
I2
sS'd'
p1972
I130
sS'signal'
p1973
I1
sS'resolv'
p1974
I1
sS'glove'
p1975
I1
sS'strife'
p1976
I2
sS'baggag'
p1977
I2
sS'pilgrimag'
p1978
I1
sS'lenten'
p1979
I1
sS'transgress'
p1980
I1
sS'pestil'
p1981
I2
sS'canst'
p1982
I7
sS'acknowledg'
p1983
I1
sS'back'
p1984
I26
sS'impeach'
p1985
I1
sS'pali'
p1986
I1
sS'martial'
p1987
I1
sS'palm'
p1988
I1
sS'prostrat'
p1989
I1
sS'sight'
p1990
I9
sS'pale'
p1991
I10
sS'scale'
p1992
I1
sS'though'
p1993
I10
sS'religion'
p1994
I1
sS'pen'
p1995
I2
sS'larg'
p1996
I1
sS'undon'
p1997
I1
sS'lark'
p1998
I5
sS'nose'
p1999
I2
sS'be'
p2000
I22
sS'run'
p2001
I14
sS'wayward'
p2002
I1
sS'reach'
p2003
I1
sS'sadli'
p2004
I1
sS'palmer'
p2005
I2
sS'sacrif'
p2006
I1
sS'step'
p2007
I2
sS'patienc'
p2008
I5
sS'meantim'
p2009
I2
sS'between'
p2010
I3
sS'shine'
p2011
I1
sS'faith'
p2012
I20
sS'jealou'
p2013
I3
sS'loathsom'
p2014
I3
sS'deceas'
p2015
I1
sS'soft'
p2016
I4
sS'memori'
p2017
I1
sS'untaught'
p2018
I1
sS'idl'
p2019
I2
sS'univers'
p2020
I1
sS'within'
p2021
I20
sS'savag'
p2022
I1
sS'coil'
p2023
I1
sS'artifici'
p2024
I1
sS'occupi'
p2025
I1
sS'righteou'
p2026
I1
sS'afflict'
p2027
I2
sS'visag'
p2028
I1
sS'question'
p2029
I2
sS'long'
p2030
I16
sS'custom'
p2031
I1
sS'adjac'
p2032
I1
sS'spakest'
p2033
I1
sS'whereto'
p2034
I1
sS'suit'
p2035
I4
sS'forward'
p2036
I2
sS'shalt'
p2037
I11
sS'himself'
p2038
I8
sS'poster'
p2039
I1
sS'frost'
p2040
I1
sS'cloth'
p2041
I1
sS'soundpost'
p2042
I1
sS'sick'
p2043
I8
sS'reel'
p2044
I1
sS'dull'
p2045
I2
sS'roperi'
p2046
I1
sS'skull'
p2047
I2
sS'grandsir'
p2048
I2
sS'access'
p2049
I1
sS'up'
p2050
I57
sS'us'
p2051
I14
sS'slander'
p2052
I3
sS'cophetua'
p2053
I1
sS'damnat'
p2054
I1
sS'curs'
p2055
I4
sS'pilgrim'
p2056
I3
sS'haunt'
p2057
I1
sS'scarlet'
p2058
I2
sS'cure'
p2059
I4
sS'famin'
p2060
I1
sS'chat'
p2061
I1
sS'work'
p2062
I4
sS'prevail'
p2063
I1
sS'curtain'
p2064
I4
sS'sullen'
p2065
I2
sS'pronounc'
p2066
I3
sS'titl'
p2067
I1
sS'nai'
p2068
I19
sS'water'
p2069
I2
sS'tith'
p2070
I1
sS'rood'
p2071
I1
sS'mattock'
p2072
I2
sS'nick'
p2073
I1
sS'parlou'
p2074
I1
sS'nice'
p2075
I2
sS'lucio'
p2076
I1
sS'draw'
p2077
I15
sS'potion'
p2078
I1
sS'freez'
p2079
I1
sS'resign'
p2080
I1
sS'drag'
p2081
I1
sS'masker'
p2082
I3
sS'lent'
p2083
I3
sS'dram'
p2084
I2
sS'fisher'
p2085
I1
sS'faintli'
p2086
I1
sS'ago'
p2087
I2
sS'furthest'
p2088
I1
sS'lane'
p2089
I1
sS'displant'
p2090
I1
sS'e'
p2091
I4
sS'vice'
p2092
I1
sS'vow'
p2093
I5
sS'bedaub'
p2094
I1
sS'depth'
p2095
I1
sS'fresh'
p2096
I2
sS'marvel'
p2097
I1
sS'pinion'
p2098
I1
sS'pervers'
p2099
I1
sS'dainti'
p2100
I1
sS'scratch'
p2101
I2
sS'stumblest'
p2102
I1
sS'cynthia'
p2103
I1
sS'marchpan'
p2104
I1
sS'soften'
p2105
I1
sS'chariot'
p2106
I1
sS'lend'
p2107
I4
sS'untangl'
p2108
I1
sS'gossip'
p2109
I3
sS'strew'
p2110
I4
sS'gi'
p2111
I1
sS'privat'
p2112
I2
sS'simon'
p2113
I1
sS'franciscan'
p2114
I2
sS'margent'
p2115
I1
sS'carelessli'
p2116
I1
sS'friendli'
p2117
I1
sS'send'
p2118
I15
sS'blaze'
p2119
I1
sS'breach'
p2120
I1
sS'fatal'
p2121
I4
sS'sent'
p2122
I2
sS'fond'
p2123
I3
sS'rhyme'
p2124
I3
sS'mous'
p2125
I4
sS'volum'
p2126
I1
sS'shapen'
p2127
I1
sS'surgeon'
p2128
I1
sS'harlot'
p2129
I1
sS'phoebu'
p2130
I1
sS'tri'
p2131
I1
sS'bedeck'
p2132
I1
sS'disgrac'
p2133
I1
sS'umpir'
p2134
I1
sS'stiff'
p2135
I2
sS'knight'
p2136
I2
sS'unhallow'
p2137
I1
sS'petrarch'
p2138
I1
sS'stifl'
p2139
I1
sS'try'
p2140
I2
sS'gipsi'
p2141
I1
sS'kinsmen'
p2142
I4
sS'knife'
p2143
I4
sS'marri'
p2144
I38
sS'subtli'
p2145
I1
sS'pleas'
p2146
I3
sS'fortun'
p2147
I9
sS'natur'
p2148
I5
sS'felon'
p2149
I1
sS'ham'
p2150
I1
sS'plead'
p2151
I1
sS'odd'
p2152
I3
sS'ladyship'
p2153
I1
sS'compar'
p2154
I3
sS'conspir'
p2155
I1
sS'profan'
p2156
I2
sS'cell'
p2157
I14
sS'rotten'
p2158
I1
sS'dowdi'
p2159
I1
sS'mantl'
p2160
I1
sS'bird'
p2161
I4
sS'poverti'
p2162
I2
sS'leg'
p2163
I4
sS'spake'
p2164
I1
sS'youngest'
p2165
I1
sS'melancholi'
p2166
I1
sS'let'
p2167
I2
sS'sink'
p2168
I2
sS'endart'
p2169
I1
sS'sing'
p2170
I6
sS'becom'
p2171
I2
sS'bode'
p2172
I1
sS'miser'
p2173
I2
sS'tortois'
p2174
I1
sS'convert'
p2175
I1
sS'healthsom'
p2176
I1
sS'spite'
p2177
I5
sS'conceit'
p2178
I2
sS'conceiv'
p2179
I1
sS'fetch'
p2180
I7
sS'needli'
p2181
I1
sS'climb'
p2182
I3
sS'mix'
p2183
I1
sS'chanc'
p2184
I4
sS'confessor'
p2185
I2
sS'danger'
p2186
I2
sS'forbid'
p2187
I2
sS'win'
p2188
I1
sS'limp'
p2189
I1
sS'wil'
p2190
I1
sS'ensign'
p2191
I1
sS'apt'
p2192
I3
sS'order'
p2193
I2
sS'wit'
p2194
I14
sS'limb'
p2195
I2
sS'cloud'
p2196
I7
sS'fee'
p2197
I3
sS'bitterli'
p2198
I2
sS'doubl'
p2199
I1
sS'pentecost'
p2200
I1
sS'next'
p2201
I7
sS'eleven'
p2202
I2
sS'doubt'
p2203
I4
sS'cram'
p2204
I1
sS'sort'
p2205
I2
sS'pencil'
p2206
I1
sS'babe'
p2207
I1
sS'gladli'
p2208
I1
sS'musician'
p2209
I18
sS'heir'
p2210
I5
sS'sore'
p2211
I1
sS'train'
p2212
I1
sS'women'
p2213
I5
sS'account'
p2214
I2
sS'alik'
p2215
I3
sS'augment'
p2216
I1
sS'heard'
p2217
I2
sS'pout'
p2218
I1
sS'mammet'
p2219
I1
sS'thin'
p2220
I1
sS'meet'
p2221
I9
sS'scatter'
p2222
I1
sS'aliv'
p2223
I2
sS'proof'
p2224
I3
sS'point'
p2225
I5
sS'ach'
p2226
I3
sS'bent'
p2227
I1
sS'do'
p2228
I2
sS'lock'
p2229
I2
sS'rode'
p2230
I1
sS'high'
p2231
I8
sS'villain'
p2232
I17
sS'slip'
p2233
I1
sS'sought'
p2234
I3
sS'denot'
p2235
I1
sS'shrift'
p2236
I5
sS'martyr'
p2237
I1
sS'trumpet'
p2238
I1
sS'contempt'
p2239
I1
sS'counterfeit'
p2240
I3
sS'lamb'
p2241
I4
sS'sir'
p2242
I51
sS'displeasur'
p2243
I1
sS'usur'
p2244
I1
sS'gaze'
p2245
I3
sS'sit'
p2246
I9
sS'six'
p2247
I1
sS'predica'
p2248
I1
sS'lamp'
p2249
I2
sS'immoder'
p2250
I1
sS'mightst'
p2251
I1
sS'sin'
p2252
I13
sS'stand'
p2253
I27
sS'fare'
p2254
I1
sS'delai'
p2255
I3
sS'perjuri'
p2256
I2
sS'unattaint'
p2257
I1
sS'cupboard'
p2258
I1
sS'attend'
p2259
I9
sS'singular'
p2260
I2
sS'stop'
p2261
I4
sS'canker'
p2262
I2
sS'wateri'
p2263
I1
sS'prolix'
p2264
I1
sS'exhal'
p2265
I1
sS'physic'
p2266
I1
sS'bankrupt'
p2267
I1
sS'honestli'
p2268
I1
sS'villan'
p2269
I1
sS'light'
p2270
I26
sS'lame'
p2271
I1
sS'issu'
p2272
I2
sS'scurvi'
p2273
I1
sS'writ'
p2274
I6
sS'allow'
p2275
I1
sS'hereabout'
p2276
I2
sS'martino'
p2277
I1
sS'furnish'
p2278
I1
sS'breast'
p2279
I6
sS'havior'
p2280
I1
sS'thigh'
p2281
I1
sS'move'
p2282
I15
sS'tyrann'
p2283
I1
sS'churl'
p2284
I1
sS'unstain'
p2285
I1
sS'tyrant'
p2286
I2
sS'thyself'
p2287
I7
sS'perfect'
p2288
I1
sS'whereon'
p2289
I1
sS'lo'
p2290
I3
sS'll'
p2291
I81
sS'holidai'
p2292
I1
sS'li'
p2293
I19
sS'sirrah'
p2294
I6
sS'therefor'
p2295
I21
sS'prosper'
p2296
I2
sS'pure'
p2297
I3
sS'paramour'
p2298
I1
sS'unthank'
p2299
I1
sS'spell'
p2300
I1
sS'repliest'
p2301
I1
sS'dai'
p2302
I52
sS'catcher'
p2303
I1
sS'kiss'
p2304
I14
sS'cage'
p2305
I1
sS'fled'
p2306
I2
sS'strive'
p2307
I1
sS'thrill'
p2308
I1
sS'feast'
p2309
I8
sS'spur'
p2310
I1
sS'truth'
p2311
I5
sS'stock'
p2312
I1
sS'beshrew'
p2313
I4
sS'societi'
p2314
I1
sS'thwart'
p2315
I1
sS'bump'
p2316
I1
sS'courteou'
p2317
I3
sS'drizzl'
p2318
I1
sS'our'
p2319
I2
sS'wander'
p2320
I1
sS'pantri'
p2321
I1
sS'out'
p2322
I52
sS'variabl'
p2323
I1
sS'maw'
p2324
I1
sS'enemi'
p2325
I8
sS'confess'
p2326
I6
sS'scape'
p2327
I2
sS'defenc'
p2328
I1
sS'discharg'
p2329
I1
sS'mate'
p2330
I1
sS'wick'
p2331
I1
sS'afford'
p2332
I4
sS'shut'
p2333
I7
sS'unsubstanti'
p2334
I1
sS'frank'
p2335
I1
sS'ethiop'
p2336
I1
sS'fourteen'
p2337
I5
sS'trusti'
p2338
I1
sS'graze'
p2339
I1
sS'frai'
p2340
I5
sS'tempt'
p2341
I1
sS'thrust'
p2342
I3
sS'bleed'
p2343
I3
sS'minstrel'
p2344
I3
sS'etern'
p2345
I1
sS'yard'
p2346
I1
sS'keep'
p2347
I19
sS'enforc'
p2348
I1
sS'mortal'
p2349
I4
sS'retain'
p2350
I1
sS'scarc'
p2351
I1
sS'scare'
p2352
I2
sS'scarf'
p2353
I1
sS'spilt'
p2354
I1
sS'yond'
p2355
I3
sS'qualiti'
p2356
I1
sS'scene'
p2357
I2
sS'sack'
p2358
I1
sS'echo'
p2359
I1
sS'betroth'
p2360
I1
sS'plainli'
p2361
I1
sS'manli'
p2362
I1
sS'trencher'
p2363
I2
sS'princ'
p2364
I24
sS'philosophi'
p2365
I3
sS'dump'
p2366
I3
sS'flourish'
p2367
I1
sS'accent'
p2368
I1
sS'messag'
p2369
I1
sS'attach'
p2370
I1
sS'battlement'
p2371
I1
sS'scant'
p2372
I1
sS'cleopatra'
p2373
I1
sS'rebelli'
p2374
I1
sS'fairest'
p2375
I1
sS'beard'
p2376
I1
sS'gear'
p2377
I2
sS'jule'
p2378
I3
sS'punish'
p2379
I2
sS'quinc'
p2380
I1
sS'shelv'
p2381
I1
sS'herself'
p2382
I5
sS'steel'
p2383
I4
sS'enpierc'
p2384
I1
sS'aught'
p2385
I2
sS'slack'
p2386
I1
sS'beseem'
p2387
I3
sS'steed'
p2388
I1
sS'beg'
p2389
I4
sS'bed'
p2390
I26
sS'unmad'
p2391
I1
sS'sens'
p2392
I4
sS'seriou'
p2393
I1
sS'signifi'
p2394
I1
sS'steep'
p2395
I1
sS'starveth'
p2396
I1
sS'fantastico'
p2397
I1
sS'afor'
p2398
I3
sS'beggar'
p2399
I3
sS'westward'
p2400
I1
sS'tide'
p2401
I5
sS'fail'
p2402
I3
sS'nourish'
p2403
I1
sS'torment'
p2404
I3
sS'lightli'
p2405
I1
sS'tabl'
p2406
I2
sS'throat'
p2407
I1
sS'waken'
p2408
I2
sS'mangl'
p2409
I3
sS'afraid'
p2410
I1
sS'messeng'
p2411
I2
sS'therewith'
p2412
I1
sS'si'
p2413
I1
sS'reeki'
p2414
I1
sS'jaunt'
p2415
I2
sS'gavest'
p2416
I1
sS'juliet'
p2417
I46
sS'visor'
p2418
I2
sS'graviti'
p2419
I1
sS'singl'
p2420
I2
sS'soar'
p2421
I2
sS'courtesi'
p2422
I3
sS'adieu'
p2423
I3
sS'unless'
p2424
I6
sS'hazel'
p2425
I2
sS'discov'
p2426
I2
sS'distemperatur'
p2427
I1
sS'perdona'
p2428
I1
sS'eight'
p2429
I1
sS'mantua'
p2430
I15
sS'hoodwink'
p2431
I1
sS'clasp'
p2432
I1
sS'consort'
p2433
I4
sS'camest'
p2434
I2
sS'shroud'
p2435
I3
sS'bred'
p2436
I1
sS'request'
p2437
I1
sS'face'
p2438
I22
sS'pipe'
p2439
I1
sS'deni'
p2440
I5
sS'laurenc'
p2441
I9
sS'determin'
p2442
I2
sS'beetl'
p2443
I1
sS'constrain'
p2444
I1
sS'niec'
p2445
I1
sS'text'
p2446
I1
sS'whistl'
p2447
I2
sS'unseen'
p2448
I1
sS'phrase'
p2449
I1
sS'bring'
p2450
I14
sS'brine'
p2451
I1
sS'traitor'
p2452
I1
sS'unaccustom'
p2453
I3
sS'utter'
p2454
I4
sS'fear'
p2455
I22
sS'ha'
p2456
I5
sS'nois'
p2457
I7
sS'jaw'
p2458
I1
sS'madman'
p2459
I2
sS'wreak'
p2460
I1
sS'rash'
p2461
I1
sS'dispers'
p2462
I1
sS'inund'
p2463
I1
sS'won'
p2464
I1
sS'suppos'
p2465
I3
sS'sparkl'
p2466
I1
sS'spice'
p2467
I1
sS'counsellor'
p2468
I2
sS'hope'
p2469
I5
sS'meant'
p2470
I2
sS'eyeless'
p2471
I1
sS'satisfact'
p2472
I1
sS'beat'
p2473
I9
sS'familiar'
p2474
I1
sS'hire'
p2475
I3
sS'bear'
p2476
I16
sS'joint'
p2477
I5
sS'redeem'
p2478
I1
sS'distraught'
p2479
I1
sS'wring'
p2480
I1
sS'ordain'
p2481
I1
sS'stuff'
p2482
I2
sS'thrive'
p2483
I1
sS'contain'
p2484
I1
sS'tuner'
p2485
I1
sS'widow'
p2486
I2
sS'madam'
p2487
I21
sS'sluttish'
p2488
I1
sS'farthest'
p2489
I1
sS'ebb'
p2490
I1
sS'funer'
p2491
I1
sS'apolog'
p2492
I1
sS'powder'
p2493
I3
sS'portent'
p2494
I1
sS'statu'
p2495
I1
sS'beautifi'
p2496
I1
sS'closet'
p2497
I1
sS'enamour'
p2498
I1
sS'partisan'
p2499
I2
sS'cruel'
p2500
I3
sS'written'
p2501
I5
sS'progress'
p2502
I1
sS'bought'
p2503
I1
sS'yesternight'
p2504
I1
sS'kei'
p2505
I1
sS'dateless'
p2506
I1
sS'joy'
p2507
I5
sS'sorrow'
p2508
I10
sS'dislik'
p2509
I1
sS'disput'
p2510
I1
sS'swift'
p2511
I4
sS'thank'
p2512
I7
sS'gleek'
p2513
I1
sS'drum'
p2514
I2
sS'canopi'
p2515
I1
sS'aqua'
p2516
I2
sS'drug'
p2517
I2
sS'april'
p2518
I1
sS'admir'
p2519
I1
sS'rust'
p2520
I1
sS'puff'
p2521
I1
sS'swallow'
p2522
I1
sS'wear'
p2523
I6
sS'venu'
p2524
I2
sS'fester'
p2525
I1
sS'wall'
p2526
I11
sS'arriv'
p2527
I1
sS'walk'
p2528
I4
sS'commend'
p2529
I5
sS'distil'
p2530
I2
sS'veng'
p2531
I1
sS'laugh'
p2532
I4
sS'respect'
p2533
I4
sS'holidam'
p2534
I1
sS'copest'
p2535
I1
sS'unclean'
p2536
I1
sS'quit'
p2537
I3
sS'tread'
p2538
I2
sS'misappli'
p2539
I1
sS'caitiff'
p2540
I1
sS'riband'
p2541
I1
sS'tutor'
p2542
I2
sS'versal'
p2543
I1
sS'certain'
p2544
I1
sS'eloqu'
p2545
I1
sS'feather'
p2546
I3
sS'immedi'
p2547
I2
sS'treasur'
p2548
I1
sS'presenc'
p2549
I2
sS'c'
p2550
I2
sS'skain'
p2551
I1
sS'neighbour'
p2552
I2
sS'inexor'
p2553
I1
sS'togeth'
p2554
I1
sS'nuptial'
p2555
I1
sS'present'
p2556
I6
sS'banish'
p2557
I21
sS'behest'
p2558
I1
sS'wilt'
p2559
I27
sS'need'
p2560
I14
sS'ripen'
p2561
I1
sS'will'
p2562
I1
sS'agat'
p2563
I1
sS'wild'
p2564
I5
sS'lustier'
p2565
I1
sS'chapless'
p2566
I1
sS'purchas'
p2567
I1
sS'ripe'
p2568
I1
sS'apprehend'
p2569
I3
sS'substanti'
p2570
I1
sS'sheath'
p2571
I2
sS'duellist'
p2572
I1
sS'reverso'
p2573
I1
sS'whore'
p2574
I1
sS'greater'
p2575
I1
sS'welcom'
p2576
I8
sS'misfortun'
p2577
I2
sS'parti'
p2578
I1
sS'began'
p2579
I2
sS'valour'
p2580
I3
sS'anon'
p2581
I6
sS'inch'
p2582
I1
sS'defianc'
p2583
I1
sS'strangl'
p2584
I1
sS'nightli'
p2585
I3
sS'prais'
p2586
I1
sS'ball'
p2587
I1
sS'slave'
p2588
I3
sS'yon'
p2589
I3
sS'bale'
p2590
I1
sS'drink'
p2591
I5
sS'upon'
p2592
I41
sS'effect'
p2593
I2
sS'romeo'
p2594
I112
sS'beast'
p2595
I4
sS'vault'
p2596
I9
sS'dust'
p2597
I1
sS'fellowship'
p2598
I1
sS'judgment'
p2599
I3
sS'collar'
p2600
I2
sS'weapon'
p2601
I4
sS'didst'
p2602
I6
sS'sweetmeat'
p2603
I1
sS'thought'
p2604
I11
sS'cheveril'
p2605
I1
sS'oft'
p2606
I4
sS'choos'
p2607
I3
sS'conquer'
p2608
I1
sS'lest'
p2609
I4
sS'distanc'
p2610
I1
sS'stout'
p2611
I1
sS'discord'
p2612
I3
sS'potpan'
p2613
I2
sS'half'
p2614
I4
sS'affright'
p2615
I1
sS'dearest'
p2616
I1
sS'abat'
p2617
I1
sS'skill'
p2618
I1
sS'hideou'
p2619
I1
sS'web'
p2620
I1
sS'wed'
p2621
I9
sS'trudg'
p2622
I2
sS'bell'
p2623
I3
sS'bench'
p2624
I1
sS'add'
p2625
I1
sS'other'
p2626
I9
sS'poperin'
p2627
I1
sS'crack'
p2628
I1
sS'ado'
p2629
I1
sS'logger'
p2630
I1
sS'warrant'
p2631
I11
sS'match'
p2632
I6
sS'raven'
p2633
I3
sS'rememb'
p2634
I8
sS'fate'
p2635
I1
sS'livia'
p2636
I1
sS'piec'
p2637
I3
sS'five'
p2638
I5
sS'know'
p2639
I43
sS'knot'
p2640
I1
sS'press'
p2641
I4
sS'earthen'
p2642
I1
sS'prest'
p2643
I1
sS'loss'
p2644
I4
sS'resid'
p2645
I1
sS'like'
p2646
I4
sS'lost'
p2647
I3
sS'passion'
p2648
I3
sS'doctrin'
p2649
I1
sS'unadvis'
p2650
I1
sS'necessari'
p2651
I1
sS'heed'
p2652
I1
sS'lose'
p2653
I2
sS'candl'
p2654
I2
sS'rote'
p2655
I1
sS'page'
p2656
I8
sS'heel'
p2657
I3
sS'shed'
p2658
I2
sS'revers'
p2659
I1
sS'convei'
p2660
I1
sS'whither'
p2661
I2
sS'peer'
p2662
I1
sS'hair'
p2663
I4
sS'daylight'
p2664
I3
sS'redress'
p2665
I1
sS'unstuff'
p2666
I1
sS'proper'
p2667
I1
sS'home'
p2668
I7
sS'portli'
p2669
I1
sS'peter'
p2670
I11
sS'guid'
p2671
I1
sS'leaf'
p2672
I1
sS'lead'
p2673
I6
sS'broad'
p2674
I3
sS'cockerel'
p2675
I1
sS'lean'
p2676
I2
sS'leap'
p2677
I4
sS'leav'
p2678
I16
sS'settl'
p2679
I1
sS'awak'
p2680
I3
sS'passado'
p2681
I2
sS'pepper'
p2682
I1
sS'worthi'
p2683
I1
sS'prudenc'
p2684
I1
sS'adversari'
p2685
I1
sS'coldli'
p2686
I1
sS'thinli'
p2687
I1
sS'forgiv'
p2688
I2
sS'obei'
p2689
I2
sS'although'
p2690
I1
sS'slug'
p2691
I1
sS'anselm'
p2692
I1
sS'stage'
p2693
I1
sS'throne'
p2694
I2
sS'sister'
p2695
I1
sS'misbehav'
p2696
I1
sS'mutini'
p2697
I2
sS'justic'
p2698
I1
sS'dishonour'
p2699
I2
sS'swear'
p2700
I9
sS'darest'
p2701
I1
sS'coachmak'
p2702
I1
sS'ti'
p2703
I1
sS'tomb'
p2704
I12
sS'emperor'
p2705
I1
sS'encamp'
p2706
I1
sS'seest'
p2707
I2
sS'desper'
p2708
I10
sS'tortur'
p2709
I4
sS'guard'
p2710
I1
sS'esteem'
p2711
I1
sS'awhil'
p2712
I5
sS'thisb'
p2713
I1
sS'crave'
p2714
I4
sS'stainless'
p2715
I1
sS'sententi'
p2716
I1
sS'watchman'
p2717
I8
sS'vein'
p2718
I4
sS'yellow'
p2719
I1
sS'cricket'
p2720
I1
sS'receipt'
p2721
I1
sS'north'
p2722
I1
sS'shank'
p2723
I1
sS'bui'
p2724
I3
sS'ho'
p2725
I9
sS'liquor'
p2726
I1
sS'threaten'
p2727
I2
sS'assail'
p2728
I1
sS'eas'
p2729
I2
sS'ear'
p2730
I17
sS'eat'
p2731
I1
sS'bud'
p2732
I3
sS'count'
p2733
I5
sS'made'
p2734
I20
sS'wise'
p2735
I8
sS'seiz'
p2736
I1
sS'smooth'
p2737
I2
sS'triumphant'
p2738
I1
sS'warmth'
p2739
I1
sS'misti'
p2740
I1
sS'below'
p2741
I1
sS'belov'
p2742
I1
sS'limit'
p2743
I2
sS'glori'
p2744
I1
sS'monument'
p2745
I6
sS'cake'
p2746
I1
sS'mista'
p2747
I1
sS'whoreson'
p2748
I1
sS'cordial'
p2749
I1
sS'sycamor'
p2750
I1
sS'pin'
p2751
I1
sS'whisper'
p2752
I1
sS'pie'
p2753
I1
sS'pig'
p2754
I1
sS'twist'
p2755
I1
sS'ink'
p2756
I1
sS'collier'
p2757
I1
sS'penni'
p2758
I1
sS'loud'
p2759
I1
sS'misadventur'
p2760
I3
sS'boot'
p2761
I1
sS'book'
p2762
I8
sS'special'
p2763
I1
sS'meteor'
p2764
I1
sS'deadli'
p2765
I3
sS'behold'
p2766
I7
sS'er'
p2767
I42
sS'forswear'
p2768
I1
sS'effemin'
p2769
I1
sS'star'
p2770
I8
sS'kindr'
p2771
I3
sS'mourner'
p2772
I1
sS'masterless'
p2773
I1
sS'stab'
p2774
I3
sS'mondai'
p2775
I1
sS'humbl'
p2776
I1
sS'fickl'
p2777
I2
sS'stai'
p2778
I31
sS'ghost'
p2779
I1
sS'searcher'
p2780
I1
sS'experienc'
p2781
I1
sS'jewel'
p2782
I1
sS'rule'
p2783
I3
sS'entreat'
p2784
I3
sS'pupil'
p2785
I1
sS'abhor'
p2786
I2
sS'shunn'
p2787
I1
s.